target datalayout = "e-m:e-p270:32:32-p271:32:32-p272:64:64-i64:64-i128:128-f80:128-n8:16:32:64-S128"
target triple = "x86_64-pc-linux-gnu"

%"class.glslang::TQualifier" = type <{ ptr, i64, i8, [3 x i8], i32, i32, i64, i64, i8, i8, i8, i8, i8, [3 x i8], i32, i8, i8, i8, i8, i32, ptr, i8, i8, [6 x i8] }>
%"class.glslang::TType" = type { ptr, i32, [4 x i8], %"class.glslang::TQualifier", ptr, %union.anon.92, ptr, ptr, %"struct.glslang::TSampler", ptr, ptr }
%union.anon.92 = type { ptr }
%"struct.glslang::TSampler" = type { i32 }
%"struct.std::_Vector_base.127" = type { %"struct.std::_Vector_base<glslang::TTypeLoc, glslang::pool_allocator<glslang::TTypeLoc>>::_Vector_impl" }
%"struct.std::_Vector_base<glslang::TTypeLoc, glslang::pool_allocator<glslang::TTypeLoc>>::_Vector_impl" = type { %"class.glslang::pool_allocator.128", %"struct.std::_Vector_base<glslang::TTypeLoc, glslang::pool_allocator<glslang::TTypeLoc>>::_Vector_impl_data" }
%"class.glslang::pool_allocator.128" = type { ptr }
%"struct.std::_Vector_base<glslang::TTypeLoc, glslang::pool_allocator<glslang::TTypeLoc>>::_Vector_impl_data" = type { ptr, ptr, ptr }

; Function Attrs: mustprogress nounwind uwtable
define linkonce_odr noundef zeroext i1 @_ZNK7glslang10TQualifier11isPipeInputEv(ptr noundef nonnull align 8 dereferenceable(80) %0) #0 comdat align 2 {
  %2 = alloca i1, align 1
  %3 = alloca ptr, align 8
  store ptr %0, ptr %3, align 8
  %4 = load ptr, ptr %3, align 8
  %5 = getelementptr inbounds %"class.glslang::TQualifier", ptr %4, i32 0, i32 1
  %6 = load i64, ptr %5, align 8
  %7 = and i64 %6, 127
  %8 = trunc i64 %7 to i32
  switch i32 %8, label %10 [
    i32 3, label %9
    i32 26, label %9
    i32 27, label %9
    i32 25, label %9
    i32 20, label %9
    i32 21, label %9
  ]

9:                                                ; preds = %1, %1, %1, %1, %1, %1
  store i1 true, ptr %2, align 1
  br label %11

10:                                               ; preds = %1
  store i1 false, ptr %2, align 1
  br label %11

11:                                               ; preds = %10, %9
  %12 = load i1, ptr %2, align 1
  ret i1 %12
}

; Function Attrs: mustprogress nounwind uwtable
define linkonce_odr noundef i64 @_ZNKSt6vectorIN7glslang8TTypeLocENS0_14pool_allocatorIS1_EEE4sizeEv(ptr noundef nonnull align 8 dereferenceable(32) %0) #0 comdat align 2 {
  %2 = alloca ptr, align 8
  store ptr %0, ptr %2, align 8
  %3 = load ptr, ptr %2, align 8
  %4 = getelementptr inbounds %"struct.std::_Vector_base.127", ptr %3, i32 0, i32 0
  %5 = getelementptr inbounds i8, ptr %4, i64 8
  %6 = getelementptr inbounds %"struct.std::_Vector_base<glslang::TTypeLoc, glslang::pool_allocator<glslang::TTypeLoc>>::_Vector_impl_data", ptr %5, i32 0, i32 1
  %7 = load ptr, ptr %6, align 8
  %8 = getelementptr inbounds %"struct.std::_Vector_base.127", ptr %3, i32 0, i32 0
  %9 = getelementptr inbounds i8, ptr %8, i64 8
  %10 = getelementptr inbounds %"struct.std::_Vector_base<glslang::TTypeLoc, glslang::pool_allocator<glslang::TTypeLoc>>::_Vector_impl_data", ptr %9, i32 0, i32 0
  %11 = load ptr, ptr %10, align 8
  %12 = ptrtoint ptr %7 to i64
  %13 = ptrtoint ptr %11 to i64
  %14 = sub i64 %12, %13
  %15 = sdiv exact i64 %14, 32
  ret i64 %15
}

; Function Attrs: mustprogress nounwind uwtable
define linkonce_odr noundef ptr @_ZNK7glslang5TType9getStructEv(ptr noundef nonnull align 8 dereferenceable(152) %0) #0 comdat align 2 {
  %2 = alloca ptr, align 8
  store ptr %0, ptr %2, align 8
  %3 = load ptr, ptr %2, align 8
  %4 = getelementptr inbounds %"class.glslang::TType", ptr %3, i32 0, i32 5
  %5 = load ptr, ptr %4, align 8
  ret ptr %5
}

; Function Attrs: mustprogress nounwind uwtable
define linkonce_odr void @_ZN7glslang5TTypeD2Ev(ptr noundef nonnull align 8 dereferenceable(152) %0) unnamed_addr #0 comdat align 2 {
  %2 = alloca ptr, align 8
  store ptr %0, ptr %2, align 8
  ret void
}

; Function Attrs: mustprogress nounwind uwtable
define linkonce_odr noundef nonnull align 8 dereferenceable(80) ptr @_ZN7glslang5TType12getQualifierEv(ptr noundef nonnull align 8 dereferenceable(152) %0) unnamed_addr #0 comdat align 2 {
  %2 = alloca ptr, align 8
  store ptr %0, ptr %2, align 8
  %3 = load ptr, ptr %2, align 8
  %4 = getelementptr inbounds %"class.glslang::TType", ptr %3, i32 0, i32 3
  ret ptr %4
}

; Function Attrs: mustprogress nounwind uwtable
define linkonce_odr noundef zeroext i1 @_ZNK7glslang10TQualifier9isPerViewEv(ptr noundef nonnull align 8 dereferenceable(80) %0) #0 comdat align 2 {
  %2 = alloca ptr, align 8
  store ptr %0, ptr %2, align 8
  %3 = load ptr, ptr %2, align 8
  %4 = getelementptr inbounds %"class.glslang::TQualifier", ptr %3, i32 0, i32 1
  %5 = load i64, ptr %4, align 8
  %6 = lshr i64 %5, 42
  %7 = and i64 %6, 1
  %8 = trunc i64 %7 to i1
  ret i1 %8
}

; Function Attrs: mustprogress nounwind uwtable
define noundef i32 @_ZN7glslang13TIntermediate23computeTypeLocationSizeERKNS_5TTypeE11EShLanguage(ptr noundef nonnull align 8 dereferenceable(152) %0, i32 noundef %1) #0 align 2 {
  %3 = alloca i32, align 4
  %4 = alloca ptr, align 8
  %5 = alloca i32, align 4
  %6 = alloca %"class.glslang::TType", align 8
  %7 = alloca i32, align 4
  %8 = alloca i32, align 4
  %9 = alloca i32, align 4
  %10 = alloca %"class.glslang::TType", align 8
  %11 = alloca %"class.glslang::TType", align 8
  store ptr %0, ptr %4, align 8
  store i32 %1, ptr %5, align 4
  %12 = load ptr, ptr %4, align 8
  %13 = load ptr, ptr %12, align 8
  %14 = getelementptr inbounds ptr, ptr %13, i64 29
  %15 = load ptr, ptr %14, align 8
  %16 = call noundef zeroext i1 %15(ptr noundef nonnull align 8 dereferenceable(152) %12)
  br i1 %16, label %17, label %49

17:                                               ; preds = %2
  %18 = load ptr, ptr %4, align 8
  call void @_ZN7glslang5TTypeC2ERKS0_ib(ptr noundef nonnull align 8 dereferenceable(152) %6, ptr noundef nonnull align 8 dereferenceable(152) %18, i32 noundef 0, i1 noundef zeroext false)
  %19 = load ptr, ptr %4, align 8
  %20 = load ptr, ptr %19, align 8
  %21 = getelementptr inbounds ptr, ptr %20, i64 30
  %22 = load ptr, ptr %21, align 8
  %23 = call noundef zeroext i1 %22(ptr noundef nonnull align 8 dereferenceable(152) %19)
  br i1 %23, label %24, label %40

24:                                               ; preds = %17
  %25 = load ptr, ptr %4, align 8
  %26 = load ptr, ptr %25, align 8
  %27 = getelementptr inbounds ptr, ptr %26, i64 11
  %28 = load ptr, ptr %27, align 8
  %29 = call noundef nonnull align 8 dereferenceable(80) ptr %28(ptr noundef nonnull align 8 dereferenceable(152) %25)
  %30 = call noundef zeroext i1 @_ZNK7glslang10TQualifier9isPerViewEv(ptr noundef nonnull align 8 dereferenceable(80) %29)
  br i1 %30, label %40, label %31

31:                                               ; preds = %24
  %32 = load ptr, ptr %4, align 8
  %33 = load ptr, ptr %32, align 8
  %34 = getelementptr inbounds ptr, ptr %33, i64 15
  %35 = load ptr, ptr %34, align 8
  %36 = call noundef i32 %35(ptr noundef nonnull align 8 dereferenceable(152) %32)
  %37 = load i32, ptr %5, align 4
  %38 = call noundef i32 @_ZN7glslang13TIntermediate23computeTypeLocationSizeERKNS_5TTypeE11EShLanguage(ptr noundef nonnull align 8 dereferenceable(152) %6, i32 noundef %37)
  %39 = mul nsw i32 %36, %38
  store i32 %39, ptr %3, align 4
  store i32 1, ptr %7, align 4
  br label %48

40:                                               ; preds = %24, %17
  %41 = call noundef nonnull align 8 dereferenceable(80) ptr @_ZN7glslang5TType12getQualifierEv(ptr noundef nonnull align 8 dereferenceable(152) %6)
  %42 = getelementptr inbounds %"class.glslang::TQualifier", ptr %41, i32 0, i32 1
  %43 = load i64, ptr %42, align 8
  %44 = and i64 %43, -4398046511105
  %45 = or i64 %44, 0
  store i64 %45, ptr %42, align 8
  %46 = load i32, ptr %5, align 4
  %47 = call noundef i32 @_ZN7glslang13TIntermediate23computeTypeLocationSizeERKNS_5TTypeE11EShLanguage(ptr noundef nonnull align 8 dereferenceable(152) %6, i32 noundef %46)
  store i32 %47, ptr %3, align 4
  store i32 1, ptr %7, align 4
  br label %48

48:                                               ; preds = %40, %31
  call void @_ZN7glslang5TTypeD2Ev(ptr noundef nonnull align 8 dereferenceable(152) %6) #12
  br label %132

49:                                               ; preds = %2
  %50 = load ptr, ptr %4, align 8
  %51 = load ptr, ptr %50, align 8
  %52 = getelementptr inbounds ptr, ptr %51, i64 37
  %53 = load ptr, ptr %52, align 8
  %54 = call noundef zeroext i1 %53(ptr noundef nonnull align 8 dereferenceable(152) %50)
  br i1 %54, label %55, label %75

55:                                               ; preds = %49
  store i32 0, ptr %8, align 4
  store i32 0, ptr %9, align 4
  br label %56

56:                                               ; preds = %70, %55
  %57 = load i32, ptr %9, align 4
  %58 = load ptr, ptr %4, align 8
  %59 = call noundef ptr @_ZNK7glslang5TType9getStructEv(ptr noundef nonnull align 8 dereferenceable(152) %58)
  %60 = call noundef i64 @_ZNKSt6vectorIN7glslang8TTypeLocENS0_14pool_allocatorIS1_EEE4sizeEv(ptr noundef nonnull align 8 dereferenceable(32) %59) #12
  %61 = trunc i64 %60 to i32
  %62 = icmp slt i32 %57, %61
  br i1 %62, label %63, label %73

63:                                               ; preds = %56
  %64 = load ptr, ptr %4, align 8
  %65 = load i32, ptr %9, align 4
  call void @_ZN7glslang5TTypeC2ERKS0_ib(ptr noundef nonnull align 8 dereferenceable(152) %10, ptr noundef nonnull align 8 dereferenceable(152) %64, i32 noundef %65, i1 noundef zeroext false)
  %66 = load i32, ptr %5, align 4
  %67 = call noundef i32 @_ZN7glslang13TIntermediate23computeTypeLocationSizeERKNS_5TTypeE11EShLanguage(ptr noundef nonnull align 8 dereferenceable(152) %10, i32 noundef %66)
  %68 = load i32, ptr %8, align 4
  %69 = add nsw i32 %68, %67
  store i32 %69, ptr %8, align 4
  call void @_ZN7glslang5TTypeD2Ev(ptr noundef nonnull align 8 dereferenceable(152) %10) #12
  br label %70

70:                                               ; preds = %63
  %71 = load i32, ptr %9, align 4
  %72 = add nsw i32 %71, 1
  store i32 %72, ptr %9, align 4
  br label %56, !llvm.loop !50

73:                                               ; preds = %56
  %74 = load i32, ptr %8, align 4
  store i32 %74, ptr %3, align 4
  br label %132

75:                                               ; preds = %49
  %76 = load ptr, ptr %4, align 8
  %77 = load ptr, ptr %76, align 8
  %78 = getelementptr inbounds ptr, ptr %77, i64 24
  %79 = load ptr, ptr %78, align 8
  %80 = call noundef zeroext i1 %79(ptr noundef nonnull align 8 dereferenceable(152) %76)
  br i1 %80, label %81, label %82

81:                                               ; preds = %75
  store i32 1, ptr %3, align 4
  br label %132

82:                                               ; preds = %75
  %83 = load ptr, ptr %4, align 8
  %84 = load ptr, ptr %83, align 8
  %85 = getelementptr inbounds ptr, ptr %84, i64 27
  %86 = load ptr, ptr %85, align 8
  %87 = call noundef zeroext i1 %86(ptr noundef nonnull align 8 dereferenceable(152) %83)
  br i1 %87, label %88, label %115

88:                                               ; preds = %82
  %89 = load i32, ptr %5, align 4
  %90 = icmp eq i32 %89, 0
  br i1 %90, label %91, label %99

91:                                               ; preds = %88
  %92 = load ptr, ptr %4, align 8
  %93 = load ptr, ptr %92, align 8
  %94 = getelementptr inbounds ptr, ptr %93, i64 11
  %95 = load ptr, ptr %94, align 8
  %96 = call noundef nonnull align 8 dereferenceable(80) ptr %95(ptr noundef nonnull align 8 dereferenceable(152) %92)
  %97 = call noundef zeroext i1 @_ZNK7glslang10TQualifier11isPipeInputEv(ptr noundef nonnull align 8 dereferenceable(80) %96)
  br i1 %97, label %98, label %99

98:                                               ; preds = %91
  store i32 1, ptr %3, align 4
  br label %132

99:                                               ; preds = %91, %88
  %100 = load ptr, ptr %4, align 8
  %101 = load ptr, ptr %100, align 8
  %102 = getelementptr inbounds ptr, ptr %101, i64 7
  %103 = load ptr, ptr %102, align 8
  %104 = call noundef i32 %103(ptr noundef nonnull align 8 dereferenceable(152) %100)
  %105 = icmp eq i32 %104, 2
  br i1 %105, label %106, label %114

106:                                              ; preds = %99
  %107 = load ptr, ptr %4, align 8
  %108 = load ptr, ptr %107, align 8
  %109 = getelementptr inbounds ptr, ptr %108, i64 12
  %110 = load ptr, ptr %109, align 8
  %111 = call noundef i32 %110(ptr noundef nonnull align 8 dereferenceable(152) %107)
  %112 = icmp sgt i32 %111, 2
  br i1 %112, label %113, label %114

113:                                              ; preds = %106
  store i32 2, ptr %3, align 4
  br label %132

114:                                              ; preds = %106, %99
  store i32 1, ptr %3, align 4
  br label %132

115:                                              ; preds = %82
  %116 = load ptr, ptr %4, align 8
  %117 = load ptr, ptr %116, align 8
  %118 = getelementptr inbounds ptr, ptr %117, i64 28
  %119 = load ptr, ptr %118, align 8
  %120 = call noundef zeroext i1 %119(ptr noundef nonnull align 8 dereferenceable(152) %116)
  br i1 %120, label %121, label %131

121:                                              ; preds = %115
  %122 = load ptr, ptr %4, align 8
  call void @_ZN7glslang5TTypeC2ERKS0_ib(ptr noundef nonnull align 8 dereferenceable(152) %11, ptr noundef nonnull align 8 dereferenceable(152) %122, i32 noundef 0, i1 noundef zeroext false)
  %123 = load ptr, ptr %4, align 8
  %124 = load ptr, ptr %123, align 8
  %125 = getelementptr inbounds ptr, ptr %124, i64 13
  %126 = load ptr, ptr %125, align 8
  %127 = call noundef i32 %126(ptr noundef nonnull align 8 dereferenceable(152) %123)
  %128 = load i32, ptr %5, align 4
  %129 = call noundef i32 @_ZN7glslang13TIntermediate23computeTypeLocationSizeERKNS_5TTypeE11EShLanguage(ptr noundef nonnull align 8 dereferenceable(152) %11, i32 noundef %128)
  %130 = mul nsw i32 %127, %129
  store i32 %130, ptr %3, align 4
  store i32 1, ptr %7, align 4
  call void @_ZN7glslang5TTypeD2Ev(ptr noundef nonnull align 8 dereferenceable(152) %11) #12
  br label %132

131:                                              ; preds = %115
  store i32 1, ptr %3, align 4
  br label %132

132:                                              ; preds = %131, %121, %114, %113, %98, %81, %73, %48
  %133 = load i32, ptr %3, align 4
  ret i32 %133
}