; Function Attrs: mustprogress nounwind uwtable
define noundef i32 @_ZN7glslang13TIntermediate23computeTypeLocationSizeERKNS_5TTypeE11EShLanguage(ptr noundef nonnull align 8 dereferenceable(152) %0, i32 noundef %1) local_unnamed_addr #0 align 2 {
  %3 = alloca %"class.glslang::TType", align 8
  %4 = alloca %"class.glslang::TType", align 8
  %5 = alloca %"class.glslang::TType", align 8
  %6 = load ptr, ptr %0, align 8
  %7 = getelementptr inbounds i8, ptr %6, i64 232
  %8 = load ptr, ptr %7, align 8
  %9 = tail call noundef zeroext i1 %8(ptr noundef nonnull align 8 dereferenceable(152) %0) #18
  br i1 %9, label %10, label %35

10:                                               ; preds = %2
  call void @_ZN7glslang5TTypeC2ERKS0_ib(ptr noundef nonnull align 8 dereferenceable(152) %3, ptr noundef nonnull align 8 dereferenceable(152) %0, i32 noundef 0, i1 noundef zeroext false)
  %11 = load ptr, ptr %0, align 8
  %12 = getelementptr inbounds i8, ptr %11, i64 240
  %13 = load ptr, ptr %12, align 8
  %14 = call noundef zeroext i1 %13(ptr noundef nonnull align 8 dereferenceable(152) %0) #18
  br i1 %14, label %15, label %30

15:                                               ; preds = %10
  %16 = load ptr, ptr %0, align 8
  %17 = getelementptr inbounds i8, ptr %16, i64 88
  %18 = load ptr, ptr %17, align 8
  %19 = call noundef nonnull align 8 dereferenceable(80) ptr %18(ptr noundef nonnull align 8 dereferenceable(152) %0) #18
  %20 = getelementptr inbounds i8, ptr %19, i64 8
  %21 = load i64, ptr %20, align 8
  %22 = and i64 %21, 4398046511104
  %.not = icmp eq i64 %22, 0
  br i1 %.not, label %23, label %30

23:                                               ; preds = %15
  %24 = load ptr, ptr %0, align 8
  %25 = getelementptr inbounds i8, ptr %24, i64 120
  %26 = load ptr, ptr %25, align 8
  %27 = call noundef i32 %26(ptr noundef nonnull align 8 dereferenceable(152) %0) #18
  %28 = call noundef i32 @_ZN7glslang13TIntermediate23computeTypeLocationSizeERKNS_5TTypeE11EShLanguage(ptr noundef nonnull align 8 dereferenceable(152) %3, i32 noundef %1)
  %29 = mul nsw i32 %28, %27
  br label %_ZNK7glslang10TQualifier11isPipeInputEv.exit.thread

30:                                               ; preds = %15, %10
  %31 = getelementptr inbounds i8, ptr %3, i64 24
  %32 = load i64, ptr %31, align 8
  %33 = and i64 %32, -4398046511105
  store i64 %33, ptr %31, align 8
  %34 = call noundef i32 @_ZN7glslang13TIntermediate23computeTypeLocationSizeERKNS_5TTypeE11EShLanguage(ptr noundef nonnull align 8 dereferenceable(152) %3, i32 noundef %1)
  br label %_ZNK7glslang10TQualifier11isPipeInputEv.exit.thread

35:                                               ; preds = %2
  %36 = load ptr, ptr %0, align 8
  %37 = getelementptr inbounds i8, ptr %36, i64 296
  %38 = load ptr, ptr %37, align 8
  %39 = tail call noundef zeroext i1 %38(ptr noundef nonnull align 8 dereferenceable(152) %0) #18
  br i1 %39, label %.preheader, label %66

.preheader:                                       ; preds = %35
  %40 = getelementptr inbounds i8, ptr %0, i64 104
  %41 = load ptr, ptr %40, align 8
  %42 = getelementptr inbounds i8, ptr %41, i64 8
  %43 = getelementptr inbounds i8, ptr %41, i64 16
  %44 = load ptr, ptr %43, align 8
  %45 = load ptr, ptr %42, align 8
  %46 = ptrtoint ptr %44 to i64
  %47 = ptrtoint ptr %45 to i64
  %48 = sub i64 %46, %47
  %49 = lshr exact i64 %48, 5
  %50 = trunc i64 %49 to i32
  %51 = icmp sgt i32 %50, 0
  br i1 %51, label %.lr.ph, label %_ZNK7glslang10TQualifier11isPipeInputEv.exit.thread

.lr.ph:                                           ; preds = %.preheader, %.lr.ph
  %.030 = phi i32 [ %54, %.lr.ph ], [ 0, %.preheader ]
  %.02629 = phi i32 [ %53, %.lr.ph ], [ 0, %.preheader ]
  call void @_ZN7glslang5TTypeC2ERKS0_ib(ptr noundef nonnull align 8 dereferenceable(152) %4, ptr noundef nonnull align 8 dereferenceable(152) %0, i32 noundef %.030, i1 noundef zeroext false)
  %52 = call noundef i32 @_ZN7glslang13TIntermediate23computeTypeLocationSizeERKNS_5TTypeE11EShLanguage(ptr noundef nonnull align 8 dereferenceable(152) %4, i32 noundef %1)
  %53 = add nsw i32 %52, %.02629
  %54 = add nuw nsw i32 %.030, 1
  %55 = load ptr, ptr %40, align 8
  %56 = getelementptr inbounds i8, ptr %55, i64 8
  %57 = getelementptr inbounds i8, ptr %55, i64 16
  %58 = load ptr, ptr %57, align 8
  %59 = load ptr, ptr %56, align 8
  %60 = ptrtoint ptr %58 to i64
  %61 = ptrtoint ptr %59 to i64
  %62 = sub i64 %60, %61
  %63 = lshr exact i64 %62, 5
  %64 = trunc i64 %63 to i32
  %65 = icmp slt i32 %54, %64
  br i1 %65, label %.lr.ph, label %_ZNK7glslang10TQualifier11isPipeInputEv.exit.thread, !llvm.loop !208

66:                                               ; preds = %35
  %67 = load ptr, ptr %0, align 8
  %68 = getelementptr inbounds i8, ptr %67, i64 192
  %69 = load ptr, ptr %68, align 8
  %70 = tail call noundef zeroext i1 %69(ptr noundef nonnull align 8 dereferenceable(152) %0) #18
  br i1 %70, label %_ZNK7glslang10TQualifier11isPipeInputEv.exit.thread, label %71

71:                                               ; preds = %66
  %72 = load ptr, ptr %0, align 8
  %73 = getelementptr inbounds i8, ptr %72, i64 216
  %74 = load ptr, ptr %73, align 8
  %75 = tail call noundef zeroext i1 %74(ptr noundef nonnull align 8 dereferenceable(152) %0) #18
  br i1 %75, label %76, label %99

76:                                               ; preds = %71
  %77 = icmp eq i32 %1, 0
  br i1 %77, label %78, label %_ZNK7glslang10TQualifier11isPipeInputEv.exit

78:                                               ; preds = %76
  %79 = load ptr, ptr %0, align 8
  %80 = getelementptr inbounds i8, ptr %79, i64 88
  %81 = load ptr, ptr %80, align 8
  %82 = tail call noundef nonnull align 8 dereferenceable(80) ptr %81(ptr noundef nonnull align 8 dereferenceable(152) %0) #18
  %83 = getelementptr inbounds i8, ptr %82, i64 8
  %84 = load i64, ptr %83, align 8
  %85 = trunc i64 %84 to i32
  %86 = and i32 %85, 127
  switch i32 %86, label %_ZNK7glslang10TQualifier11isPipeInputEv.exit [
    i32 3, label %_ZNK7glslang10TQualifier11isPipeInputEv.exit.thread
    i32 26, label %_ZNK7glslang10TQualifier11isPipeInputEv.exit.thread
    i32 27, label %_ZNK7glslang10TQualifier11isPipeInputEv.exit.thread
    i32 25, label %_ZNK7glslang10TQualifier11isPipeInputEv.exit.thread
    i32 20, label %_ZNK7glslang10TQualifier11isPipeInputEv.exit.thread
    i32 21, label %_ZNK7glslang10TQualifier11isPipeInputEv.exit.thread
  ]

_ZNK7glslang10TQualifier11isPipeInputEv.exit:     ; preds = %78, %76
  %87 = load ptr, ptr %0, align 8
  %88 = getelementptr inbounds i8, ptr %87, i64 56
  %89 = load ptr, ptr %88, align 8
  %90 = tail call noundef i32 %89(ptr noundef nonnull align 8 dereferenceable(152) %0) #18
  %91 = icmp eq i32 %90, 2
  br i1 %91, label %92, label %98

92:                                               ; preds = %_ZNK7glslang10TQualifier11isPipeInputEv.exit
  %93 = load ptr, ptr %0, align 8
  %94 = getelementptr inbounds i8, ptr %93, i64 96
  %95 = load ptr, ptr %94, align 8
  %96 = tail call noundef i32 %95(ptr noundef nonnull align 8 dereferenceable(152) %0) #18
  %97 = icmp sgt i32 %96, 2
  br i1 %97, label %_ZNK7glslang10TQualifier11isPipeInputEv.exit.thread, label %98

98:                                               ; preds = %92, %_ZNK7glslang10TQualifier11isPipeInputEv.exit
  br label %_ZNK7glslang10TQualifier11isPipeInputEv.exit.thread

99:                                               ; preds = %71
  %100 = load ptr, ptr %0, align 8
  %101 = getelementptr inbounds i8, ptr %100, i64 224
  %102 = load ptr, ptr %101, align 8
  %103 = tail call noundef zeroext i1 %102(ptr noundef nonnull align 8 dereferenceable(152) %0) #18
  br i1 %103, label %104, label %_ZNK7glslang10TQualifier11isPipeInputEv.exit.thread

104:                                              ; preds = %99
  call void @_ZN7glslang5TTypeC2ERKS0_ib(ptr noundef nonnull align 8 dereferenceable(152) %5, ptr noundef nonnull align 8 dereferenceable(152) %0, i32 noundef 0, i1 noundef zeroext false)
  %105 = load ptr, ptr %0, align 8
  %106 = getelementptr inbounds i8, ptr %105, i64 104
  %107 = load ptr, ptr %106, align 8
  %108 = call noundef i32 %107(ptr noundef nonnull align 8 dereferenceable(152) %0) #18
  %109 = call noundef i32 @_ZN7glslang13TIntermediate23computeTypeLocationSizeERKNS_5TTypeE11EShLanguage(ptr noundef nonnull align 8 dereferenceable(152) %5, i32 noundef %1)
  %110 = mul nsw i32 %109, %108
  br label %_ZNK7glslang10TQualifier11isPipeInputEv.exit.thread

_ZNK7glslang10TQualifier11isPipeInputEv.exit.thread: ; preds = %.lr.ph, %.preheader, %78, %78, %78, %78, %78, %78, %23, %30, %99, %92, %66, %104, %98
  %.1 = phi i32 [ 1, %98 ], [ %110, %104 ], [ 1, %66 ], [ 2, %92 ], [ 1, %99 ], [ %34, %30 ], [ %29, %23 ], [ 1, %78 ], [ 1, %78 ], [ 1, %78 ], [ 1, %78 ], [ 1, %78 ], [ 1, %78 ], [ 0, %.preheader ], [ %53, %.lr.ph ]
  ret i32 %.1
}